target datalayout = "e-m:e-p270:32:32-p271:32:32-p272:64:64-i64:64-i128:128-f80:128-n8:16:32:64-S128"
target triple = "x86_64-pc-linux-gnu"

%struct.mbedtls_sha512_context = type { [2 x i64], [8 x i64], [128 x i8], i32 }

; Function Attrs: nounwind uwtable
define hidden i32 @mbedtls_sha512_starts(ptr noundef %0, i32 noundef %1) #0 {
  %3 = alloca i32, align 4
  %4 = alloca ptr, align 8
  %5 = alloca i32, align 4
  store ptr %0, ptr %4, align 8, !tbaa !3
  store i32 %1, ptr %5, align 4, !tbaa !10
  %6 = load i32, ptr %5, align 4, !tbaa !10
  %7 = icmp ne i32 %6, 0
  br i1 %7, label %8, label %12

8:                                                ; preds = %2
  %9 = load i32, ptr %5, align 4, !tbaa !10
  %10 = icmp ne i32 %9, 1
  br i1 %10, label %11, label %12

11:                                               ; preds = %8
  store i32 -117, ptr %3, align 4
  br label %75

12:                                               ; preds = %8, %2
  %13 = load ptr, ptr %4, align 8, !tbaa !3
  %14 = getelementptr inbounds nuw %struct.mbedtls_sha512_context, ptr %13, i32 0, i32 0
  %15 = getelementptr inbounds [2 x i64], ptr %14, i64 0, i64 0
  store i64 0, ptr %15, align 8, !tbaa !12
  %16 = load ptr, ptr %4, align 8, !tbaa !3
  %17 = getelementptr inbounds nuw %struct.mbedtls_sha512_context, ptr %16, i32 0, i32 0
  %18 = getelementptr inbounds [2 x i64], ptr %17, i64 0, i64 1
  store i64 0, ptr %18, align 8, !tbaa !12
  %19 = load i32, ptr %5, align 4, !tbaa !10
  %20 = icmp eq i32 %19, 0
  br i1 %20, label %21, label %46

21:                                               ; preds = %12
  %22 = load ptr, ptr %4, align 8, !tbaa !3
  %23 = getelementptr inbounds nuw %struct.mbedtls_sha512_context, ptr %22, i32 0, i32 1
  %24 = getelementptr inbounds [8 x i64], ptr %23, i64 0, i64 0
  store i64 7640891576956012808, ptr %24, align 8, !tbaa !12
  %25 = load ptr, ptr %4, align 8, !tbaa !3
  %26 = getelementptr inbounds nuw %struct.mbedtls_sha512_context, ptr %25, i32 0, i32 1
  %27 = getelementptr inbounds [8 x i64], ptr %26, i64 0, i64 1
  store i64 -4942790177534073029, ptr %27, align 8, !tbaa !12
  %28 = load ptr, ptr %4, align 8, !tbaa !3
  %29 = getelementptr inbounds nuw %struct.mbedtls_sha512_context, ptr %28, i32 0, i32 1
  %30 = getelementptr inbounds [8 x i64], ptr %29, i64 0, i64 2
  store i64 4354685564936845355, ptr %30, align 8, !tbaa !12
  %31 = load ptr, ptr %4, align 8, !tbaa !3
  %32 = getelementptr inbounds nuw %struct.mbedtls_sha512_context, ptr %31, i32 0, i32 1
  %33 = getelementptr inbounds [8 x i64], ptr %32, i64 0, i64 3
  store i64 -6534734903238641935, ptr %33, align 8, !tbaa !12
  %34 = load ptr, ptr %4, align 8, !tbaa !3
  %35 = getelementptr inbounds nuw %struct.mbedtls_sha512_context, ptr %34, i32 0, i32 1
  %36 = getelementptr inbounds [8 x i64], ptr %35, i64 0, i64 4
  store i64 5840696475078001361, ptr %36, align 8, !tbaa !12
  %37 = load ptr, ptr %4, align 8, !tbaa !3
  %38 = getelementptr inbounds nuw %struct.mbedtls_sha512_context, ptr %37, i32 0, i32 1
  %39 = getelementptr inbounds [8 x i64], ptr %38, i64 0, i64 5
  store i64 -7276294671716946913, ptr %39, align 8, !tbaa !12
  %40 = load ptr, ptr %4, align 8, !tbaa !3
  %41 = getelementptr inbounds nuw %struct.mbedtls_sha512_context, ptr %40, i32 0, i32 1
  %42 = getelementptr inbounds [8 x i64], ptr %41, i64 0, i64 6
  store i64 2270897969802886507, ptr %42, align 8, !tbaa !12
  %43 = load ptr, ptr %4, align 8, !tbaa !3
  %44 = getelementptr inbounds nuw %struct.mbedtls_sha512_context, ptr %43, i32 0, i32 1
  %45 = getelementptr inbounds [8 x i64], ptr %44, i64 0, i64 7
  store i64 6620516959819538809, ptr %45, align 8, !tbaa !12
  br label %71

46:                                               ; preds = %12
  %47 = load ptr, ptr %4, align 8, !tbaa !3
  %48 = getelementptr inbounds nuw %struct.mbedtls_sha512_context, ptr %47, i32 0, i32 1
  %49 = getelementptr inbounds [8 x i64], ptr %48, i64 0, i64 0
  store i64 -3766243637369397544, ptr %49, align 8, !tbaa !12
  %50 = load ptr, ptr %4, align 8, !tbaa !3
  %51 = getelementptr inbounds nuw %struct.mbedtls_sha512_context, ptr %50, i32 0, i32 1
  %52 = getelementptr inbounds [8 x i64], ptr %51, i64 0, i64 1
  store i64 7105036623409894663, ptr %52, align 8, !tbaa !12
  %53 = load ptr, ptr %4, align 8, !tbaa !3
  %54 = getelementptr inbounds nuw %struct.mbedtls_sha512_context, ptr %53, i32 0, i32 1
  %55 = getelementptr inbounds [8 x i64], ptr %54, i64 0, i64 2
  store i64 -7973340178411365097, ptr %55, align 8, !tbaa !12
  %56 = load ptr, ptr %4, align 8, !tbaa !3
  %57 = getelementptr inbounds nuw %struct.mbedtls_sha512_context, ptr %56, i32 0, i32 1
  %58 = getelementptr inbounds [8 x i64], ptr %57, i64 0, i64 3
  store i64 1526699215303891257, ptr %58, align 8, !tbaa !12
  %59 = load ptr, ptr %4, align 8, !tbaa !3
  %60 = getelementptr inbounds nuw %struct.mbedtls_sha512_context, ptr %59, i32 0, i32 1
  %61 = getelementptr inbounds [8 x i64], ptr %60, i64 0, i64 4
  store i64 7436329637833083697, ptr %61, align 8, !tbaa !12
  %62 = load ptr, ptr %4, align 8, !tbaa !3
  %63 = getelementptr inbounds nuw %struct.mbedtls_sha512_context, ptr %62, i32 0, i32 1
  %64 = getelementptr inbounds [8 x i64], ptr %63, i64 0, i64 5
  store i64 -8163818279084223215, ptr %64, align 8, !tbaa !12
  %65 = load ptr, ptr %4, align 8, !tbaa !3
  %66 = getelementptr inbounds nuw %struct.mbedtls_sha512_context, ptr %65, i32 0, i32 1
  %67 = getelementptr inbounds [8 x i64], ptr %66, i64 0, i64 6
  store i64 -2662702644619276377, ptr %67, align 8, !tbaa !12
  %68 = load ptr, ptr %4, align 8, !tbaa !3
  %69 = getelementptr inbounds nuw %struct.mbedtls_sha512_context, ptr %68, i32 0, i32 1
  %70 = getelementptr inbounds [8 x i64], ptr %69, i64 0, i64 7
  store i64 5167115440072839076, ptr %70, align 8, !tbaa !12
  br label %71

71:                                               ; preds = %46, %21
  %72 = load i32, ptr %5, align 4, !tbaa !10
  %73 = load ptr, ptr %4, align 8, !tbaa !3
  %74 = getelementptr inbounds nuw %struct.mbedtls_sha512_context, ptr %73, i32 0, i32 3
  store i32 %72, ptr %74, align 8, !tbaa !14
  store i32 0, ptr %3, align 4
  br label %75

75:                                               ; preds = %71, %11
  %76 = load i32, ptr %3, align 4
  ret i32 %76
}