; Function Attrs: mustprogress nofree norecurse nosync nounwind willreturn memory(argmem: write) uwtable
define hidden range(i32 -117, 1) i32 @mbedtls_sha512_starts(ptr noundef writeonly captures(none) %0, i32 noundef %1) local_unnamed_addr #0 {
  %or.cond = icmp ugt i32 %1, 1
  br i1 %or.cond, label %16, label %3

3:                                                ; preds = %2
  %4 = icmp eq i32 %1, 0
  tail call void @llvm.memset.p0.i64(ptr noundef nonnull align 8 dereferenceable(16) %0, i8 0, i64 16, i1 false)
  br i1 %4, label %6, label %5

5:                                                ; preds = %3
  br label %6

6:                                                ; preds = %3, %5
  %.sink30 = phi i64 [ -3766243637369397544, %5 ], [ 7640891576956012808, %3 ]
  %.sink29 = phi i64 [ 7105036623409894663, %5 ], [ -4942790177534073029, %3 ]
  %.sink28 = phi i64 [ -7973340178411365097, %5 ], [ 4354685564936845355, %3 ]
  %.sink27 = phi i64 [ 1526699215303891257, %5 ], [ -6534734903238641935, %3 ]
  %.sink26 = phi i64 [ 7436329637833083697, %5 ], [ 5840696475078001361, %3 ]
  %.sink25 = phi i64 [ -8163818279084223215, %5 ], [ -7276294671716946913, %3 ]
  %.sink24 = phi i64 [ -2662702644619276377, %5 ], [ 2270897969802886507, %3 ]
  %.sink = phi i64 [ 5167115440072839076, %5 ], [ 6620516959819538809, %3 ]
  %7 = getelementptr inbounds nuw i8, ptr %0, i64 16
  store i64 %.sink30, ptr %7, align 8, !tbaa !9
  %8 = getelementptr inbounds nuw i8, ptr %0, i64 24
  store i64 %.sink29, ptr %8, align 8, !tbaa !9
  %9 = getelementptr inbounds nuw i8, ptr %0, i64 32
  store i64 %.sink28, ptr %9, align 8, !tbaa !9
  %10 = getelementptr inbounds nuw i8, ptr %0, i64 40
  store i64 %.sink27, ptr %10, align 8, !tbaa !9
  %11 = getelementptr inbounds nuw i8, ptr %0, i64 48
  store i64 %.sink26, ptr %11, align 8, !tbaa !9
  %12 = getelementptr inbounds nuw i8, ptr %0, i64 56
  store i64 %.sink25, ptr %12, align 8, !tbaa !9
  %13 = getelementptr inbounds nuw i8, ptr %0, i64 64
  store i64 %.sink24, ptr %13, align 8, !tbaa !9
  %14 = getelementptr inbounds nuw i8, ptr %0, i64 72
  store i64 %.sink, ptr %14, align 8, !tbaa !9
  %15 = getelementptr inbounds nuw i8, ptr %0, i64 208
  store i32 %1, ptr %15, align 8, !tbaa !11
  br label %16

16:                                               ; preds = %2, %6
  %.0 = phi i32 [ 0, %6 ], [ -117, %2 ]
  ret i32 %.0
}